; Function Attrs: mustprogress uwtable
define void @_ZN6icu_7513StringMatcherC2ERKNS_13UnicodeStringEiiiRKNS_23TransliterationRuleDataE(ptr noundef nonnull align 8 dereferenceable(108) %this, ptr noundef nonnull align 8 dereferenceable(64) %theString, i32 noundef %start, i32 noundef %limit, i32 noundef %segmentNum, ptr noundef nonnull align 8 dereferenceable(1168) %theData) unnamed_addr #1 align 2 personality ptr @__gxx_personality_v0 {
invoke.cont:
  %0 = getelementptr inbounds i8, ptr %this, i64 8
  %1 = getelementptr inbounds i8, ptr %this, i64 16
  store ptr getelementptr inbounds ({ [16 x ptr], [8 x ptr], [7 x ptr] }, ptr @_ZTVN6icu_7513StringMatcherE, i64 0, i32 0, i64 2), ptr %this, align 8
  store ptr getelementptr inbounds ({ [16 x ptr], [8 x ptr], [7 x ptr] }, ptr @_ZTVN6icu_7513StringMatcherE, i64 0, i32 1, i64 2), ptr %0, align 8
  store ptr getelementptr inbounds ({ [16 x ptr], [8 x ptr], [7 x ptr] }, ptr @_ZTVN6icu_7513StringMatcherE, i64 0, i32 2, i64 2), ptr %1, align 8
  %pattern = getelementptr inbounds i8, ptr %this, i64 24
  store ptr getelementptr inbounds ({ [13 x ptr] }, ptr @_ZTVN6icu_7513UnicodeStringE, i64 0, i32 0, i64 2), ptr %pattern, align 8
  %fUnion2.i = getelementptr inbounds i8, ptr %this, i64 32
  store i16 2, ptr %fUnion2.i, align 8
  %data = getelementptr inbounds i8, ptr %this, i64 88
  store ptr %theData, ptr %data, align 8
  %segmentNumber = getelementptr inbounds i8, ptr %this, i64 96
  store i32 %segmentNum, ptr %segmentNumber, align 8
  %matchStart = getelementptr inbounds i8, ptr %this, i64 100
  store i32 -1, ptr %matchStart, align 4
  %matchLimit = getelementptr inbounds i8, ptr %this, i64 104
  store i32 -1, ptr %matchLimit, align 8
  %vtable = load ptr, ptr %theString, align 8
  %vfn = getelementptr inbounds i8, ptr %vtable, i64 24
  %2 = load ptr, ptr %vfn, align 8
  invoke void %2(ptr noundef nonnull align 8 dereferenceable(64) %theString, i32 noundef %start, i32 noundef %limit, ptr noundef nonnull align 8 dereferenceable(64) %pattern)
          to label %invoke.cont5 unwind label %lpad4

invoke.cont5:                                     ; preds = %invoke.cont
  ret void

lpad4:                                            ; preds = %invoke.cont
  %3 = landingpad { ptr, i32 }
          cleanup
  tail call void @_ZN6icu_7513UnicodeStringD1Ev(ptr noundef nonnull align 8 dereferenceable(64) %pattern) #13
  tail call void @_ZN6icu_7515UnicodeReplacerD2Ev(ptr noundef nonnull align 8 dereferenceable(8) %1) #13
  tail call void @_ZN6icu_7514UnicodeMatcherD2Ev(ptr noundef nonnull align 8 dereferenceable(8) %0) #13
  tail call void @_ZN6icu_7514UnicodeFunctorD2Ev(ptr noundef nonnull align 8 dereferenceable(8) %this) #13
  resume { ptr, i32 } %3
}